target datalayout = "e-m:e-p270:32:32-p271:32:32-p272:64:64-i64:64-i128:128-f80:128-n8:16:32:64-S128"
target triple = "x86_64-pc-linux-gnu"

%struct.LogicalRepCtxStruct = type { i32, i32, i64, [0 x %struct.LogicalRepWorker] }
%struct.LogicalRepWorker = type { i32, i64, i8, i16, ptr, i32, i32, i32, i32, i8, i64, i8, ptr, i32, i8, i64, i64, i64, i64, i64 }
%union.LWLockPadded = type { %struct.LWLock, [112 x i8] }
%struct.LWLock = type { i16, %struct.pg_atomic_uint32, %struct.proclist_head }
%struct.pg_atomic_uint32 = type { i32 }
%struct.proclist_head = type { i32, i32 }
%struct.WalReceiverFunctionsType = type { ptr, ptr, ptr, ptr, ptr, ptr, ptr, ptr, ptr, ptr, ptr, ptr, ptr, ptr, ptr, ptr, ptr }
%struct.ForEachState = type { ptr, i32 }
%struct.List = type { i32, i32, i32, ptr, [0 x %union.ListCell] }
%union.ListCell = type { ptr }

@max_logical_replication_workers = dso_local global i32 4, align 4
@MyLogicalRepWorker = dso_local global ptr null, align 8
@LogicalRepCtx = internal global ptr null, align 8
@MainLWLockArray = external global ptr, align 8
@LogRepWorkerWalRcvConn = external global ptr, align 8
@WalReceiverFunctions = external global ptr, align 8
@InitializingApplyWorker = external global i8, align 1

; Function Attrs: nounwind uwtable
define internal void @logicalrep_worker_cleanup(ptr noundef %0) #0 {
  %2 = alloca ptr, align 8
  store ptr %0, ptr %2, align 8
  %3 = load ptr, ptr %2, align 8
  %4 = getelementptr inbounds nuw %struct.LogicalRepWorker, ptr %3, i32 0, i32 0
  store i32 0, ptr %4, align 8
  %5 = load ptr, ptr %2, align 8
  %6 = getelementptr inbounds nuw %struct.LogicalRepWorker, ptr %5, i32 0, i32 2
  store i8 0, ptr %6, align 8
  %7 = load ptr, ptr %2, align 8
  %8 = getelementptr inbounds nuw %struct.LogicalRepWorker, ptr %7, i32 0, i32 4
  store ptr null, ptr %8, align 8
  %9 = load ptr, ptr %2, align 8
  %10 = getelementptr inbounds nuw %struct.LogicalRepWorker, ptr %9, i32 0, i32 5
  store i32 0, ptr %10, align 8
  %11 = load ptr, ptr %2, align 8
  %12 = getelementptr inbounds nuw %struct.LogicalRepWorker, ptr %11, i32 0, i32 6
  store i32 0, ptr %12, align 4
  %13 = load ptr, ptr %2, align 8
  %14 = getelementptr inbounds nuw %struct.LogicalRepWorker, ptr %13, i32 0, i32 7
  store i32 0, ptr %14, align 8
  %15 = load ptr, ptr %2, align 8
  %16 = getelementptr inbounds nuw %struct.LogicalRepWorker, ptr %15, i32 0, i32 8
  store i32 0, ptr %16, align 4
  %17 = load ptr, ptr %2, align 8
  %18 = getelementptr inbounds nuw %struct.LogicalRepWorker, ptr %17, i32 0, i32 13
  store i32 -1, ptr %18, align 8
  %19 = load ptr, ptr %2, align 8
  %20 = getelementptr inbounds nuw %struct.LogicalRepWorker, ptr %19, i32 0, i32 14
  store i8 0, ptr %20, align 4
  ret void
}

; Function Attrs: nounwind uwtable
define dso_local ptr @logicalrep_workers_find(i32 noundef %0, i1 noundef zeroext %1, i1 noundef zeroext %2) #0 {
  %4 = alloca i32, align 4
  %5 = alloca i8, align 1
  %6 = alloca i8, align 1
  %7 = alloca i32, align 4
  %8 = alloca ptr, align 8
  %9 = alloca ptr, align 8
  store i32 %0, ptr %4, align 4
  %10 = zext i1 %1 to i8
  store i8 %10, ptr %5, align 1
  %11 = zext i1 %2 to i8
  store i8 %11, ptr %6, align 1
  call void @llvm.lifetime.start.p0(i64 4, ptr %7) #9
  call void @llvm.lifetime.start.p0(i64 8, ptr %8) #9
  store ptr null, ptr %8, align 8
  %12 = load i8, ptr %6, align 1, !range !4, !noundef !5
  %13 = trunc i8 %12 to i1
  br i1 %13, label %14, label %18

14:                                               ; preds = %3
  %15 = load ptr, ptr @MainLWLockArray, align 8
  %16 = getelementptr inbounds %union.LWLockPadded, ptr %15, i64 43
  %17 = call zeroext i1 @LWLockAcquire(ptr noundef %16, i32 noundef 1)
  br label %18

18:                                               ; preds = %14, %3
  store i32 0, ptr %7, align 4
  br label %19

19:                                               ; preds = %52, %18
  %20 = load i32, ptr %7, align 4
  %21 = load i32, ptr @max_logical_replication_workers, align 4
  %22 = icmp slt i32 %20, %21
  br i1 %22, label %23, label %55

23:                                               ; preds = %19
  call void @llvm.lifetime.start.p0(i64 8, ptr %9) #9
  %24 = load ptr, ptr @LogicalRepCtx, align 8
  %25 = getelementptr inbounds nuw %struct.LogicalRepCtxStruct, ptr %24, i32 0, i32 3
  %26 = load i32, ptr %7, align 4
  %27 = sext i32 %26 to i64
  %28 = getelementptr inbounds [0 x %struct.LogicalRepWorker], ptr %25, i64 0, i64 %27
  store ptr %28, ptr %9, align 8
  %29 = load ptr, ptr %9, align 8
  %30 = getelementptr inbounds nuw %struct.LogicalRepWorker, ptr %29, i32 0, i32 2
  %31 = load i8, ptr %30, align 8, !range !4, !noundef !5
  %32 = trunc i8 %31 to i1
  br i1 %32, label %33, label %51

33:                                               ; preds = %23
  %34 = load ptr, ptr %9, align 8
  %35 = getelementptr inbounds nuw %struct.LogicalRepWorker, ptr %34, i32 0, i32 7
  %36 = load i32, ptr %35, align 8
  %37 = load i32, ptr %4, align 4
  %38 = icmp eq i32 %36, %37
  br i1 %38, label %39, label %51

39:                                               ; preds = %33
  %40 = load i8, ptr %5, align 1, !range !4, !noundef !5
  %41 = trunc i8 %40 to i1
  br i1 %41, label %42, label %47

42:                                               ; preds = %39
  %43 = load ptr, ptr %9, align 8
  %44 = getelementptr inbounds nuw %struct.LogicalRepWorker, ptr %43, i32 0, i32 4
  %45 = load ptr, ptr %44, align 8
  %46 = icmp ne ptr %45, null
  br i1 %46, label %47, label %51

47:                                               ; preds = %42, %39
  %48 = load ptr, ptr %8, align 8
  %49 = load ptr, ptr %9, align 8
  %50 = call ptr @lappend(ptr noundef %48, ptr noundef %49)
  store ptr %50, ptr %8, align 8
  br label %51

51:                                               ; preds = %47, %42, %33, %23
  call void @llvm.lifetime.end.p0(i64 8, ptr %9) #9
  br label %52

52:                                               ; preds = %51
  %53 = load i32, ptr %7, align 4
  %54 = add i32 %53, 1
  store i32 %54, ptr %7, align 4
  br label %19, !llvm.loop !8

55:                                               ; preds = %19
  %56 = load i8, ptr %6, align 1, !range !4, !noundef !5
  %57 = trunc i8 %56 to i1
  br i1 %57, label %58, label %61

58:                                               ; preds = %55
  %59 = load ptr, ptr @MainLWLockArray, align 8
  %60 = getelementptr inbounds %union.LWLockPadded, ptr %59, i64 43
  call void @LWLockRelease(ptr noundef %60)
  br label %61

61:                                               ; preds = %58, %55
  %62 = load ptr, ptr %8, align 8
  call void @llvm.lifetime.end.p0(i64 8, ptr %8) #9
  call void @llvm.lifetime.end.p0(i64 4, ptr %7) #9
  ret ptr %62
}

; Function Attrs: inlinehint nounwind uwtable
define internal zeroext i1 @am_leader_apply_worker() #6 {
  %1 = load ptr, ptr @MyLogicalRepWorker, align 8
  %2 = getelementptr inbounds nuw %struct.LogicalRepWorker, ptr %1, i32 0, i32 0
  %3 = load i32, ptr %2, align 8
  %4 = icmp eq i32 %3, 2
  ret i1 %4
}

; Function Attrs: nounwind uwtable
define internal void @ApplyLauncherWakeup() #0 {
  %1 = load ptr, ptr @LogicalRepCtx, align 8
  %2 = getelementptr inbounds nuw %struct.LogicalRepCtxStruct, ptr %1, i32 0, i32 0
  %3 = load i32, ptr %2, align 8
  %4 = icmp ne i32 %3, 0
  br i1 %4, label %5, label %10

5:                                                ; preds = %0
  %6 = load ptr, ptr @LogicalRepCtx, align 8
  %7 = getelementptr inbounds nuw %struct.LogicalRepCtxStruct, ptr %6, i32 0, i32 0
  %8 = load i32, ptr %7, align 8
  %9 = call i32 @kill(i32 noundef %8, i32 noundef 10) #9
  br label %10

10:                                               ; preds = %5, %0
  ret void
}

; Function Attrs: nounwind uwtable
define internal void @logicalrep_worker_detach() #0 {
  %1 = alloca ptr, align 8
  %2 = alloca ptr, align 8
  %3 = alloca %struct.ForEachState, align 8
  %4 = alloca ptr, align 8
  %5 = call zeroext i1 @am_leader_apply_worker()
  br i1 %5, label %6, label %66

6:                                                ; preds = %0
  call void @llvm.lifetime.start.p0(i64 8, ptr %1) #9
  call void @llvm.lifetime.start.p0(i64 8, ptr %2) #9
  call void @pa_detach_all_error_mq()
  %7 = load ptr, ptr @MainLWLockArray, align 8
  %8 = getelementptr inbounds %union.LWLockPadded, ptr %7, i64 43
  %9 = call zeroext i1 @LWLockAcquire(ptr noundef %8, i32 noundef 1)
  %10 = load ptr, ptr @MyLogicalRepWorker, align 8
  %11 = getelementptr inbounds nuw %struct.LogicalRepWorker, ptr %10, i32 0, i32 7
  %12 = load i32, ptr %11, align 8
  %13 = call ptr @logicalrep_workers_find(i32 noundef %12, i1 noundef zeroext true, i1 noundef zeroext false)
  store ptr %13, ptr %1, align 8
  call void @llvm.lifetime.start.p0(i64 16, ptr %3) #9
  %14 = getelementptr inbounds nuw %struct.ForEachState, ptr %3, i32 0, i32 0
  %15 = load ptr, ptr %1, align 8
  store ptr %15, ptr %14, align 8
  %16 = getelementptr inbounds nuw %struct.ForEachState, ptr %3, i32 0, i32 1
  store i32 0, ptr %16, align 8
  %17 = getelementptr i8, ptr %3, i64 12
  call void @llvm.memset.p0.i64(ptr align 4 %17, i8 0, i64 4, i1 false)
  br label %18

18:                                               ; preds = %59, %6
  %19 = getelementptr inbounds nuw %struct.ForEachState, ptr %3, i32 0, i32 0
  %20 = load ptr, ptr %19, align 8
  %21 = icmp ne ptr %20, null
  br i1 %21, label %22, label %39

22:                                               ; preds = %18
  %23 = getelementptr inbounds nuw %struct.ForEachState, ptr %3, i32 0, i32 1
  %24 = load i32, ptr %23, align 8
  %25 = getelementptr inbounds nuw %struct.ForEachState, ptr %3, i32 0, i32 0
  %26 = load ptr, ptr %25, align 8
  %27 = getelementptr inbounds nuw %struct.List, ptr %26, i32 0, i32 1
  %28 = load i32, ptr %27, align 4
  %29 = icmp slt i32 %24, %28
  br i1 %29, label %30, label %39

30:                                               ; preds = %22
  %31 = getelementptr inbounds nuw %struct.ForEachState, ptr %3, i32 0, i32 0
  %32 = load ptr, ptr %31, align 8
  %33 = getelementptr inbounds nuw %struct.List, ptr %32, i32 0, i32 3
  %34 = load ptr, ptr %33, align 8
  %35 = getelementptr inbounds nuw %struct.ForEachState, ptr %3, i32 0, i32 1
  %36 = load i32, ptr %35, align 8
  %37 = sext i32 %36 to i64
  %38 = getelementptr inbounds %union.ListCell, ptr %34, i64 %37
  store ptr %38, ptr %2, align 8
  br label %40

39:                                               ; preds = %22, %18
  store ptr null, ptr %2, align 8
  br label %40

40:                                               ; preds = %39, %30
  %41 = phi i32 [ 1, %30 ], [ 0, %39 ]
  %42 = icmp ne i32 %41, 0
  br i1 %42, label %44, label %43

43:                                               ; preds = %40
  call void @llvm.lifetime.end.p0(i64 16, ptr %3) #9
  br label %63

44:                                               ; preds = %40
  call void @llvm.lifetime.start.p0(i64 8, ptr %4) #9
  %45 = load ptr, ptr %2, align 8
  %46 = load ptr, ptr %45, align 8
  store ptr %46, ptr %4, align 8
  %47 = load ptr, ptr %4, align 8
  %48 = getelementptr inbounds nuw %struct.LogicalRepWorker, ptr %47, i32 0, i32 2
  %49 = load i8, ptr %48, align 8, !range !4, !noundef !5
  %50 = trunc i8 %49 to i1
  br i1 %50, label %51, label %58

51:                                               ; preds = %44
  %52 = load ptr, ptr %4, align 8
  %53 = getelementptr inbounds nuw %struct.LogicalRepWorker, ptr %52, i32 0, i32 0
  %54 = load i32, ptr %53, align 8
  %55 = icmp eq i32 %54, 3
  br i1 %55, label %56, label %58

56:                                               ; preds = %51
  %57 = load ptr, ptr %4, align 8
  call void @logicalrep_worker_stop_internal(ptr noundef %57, i32 noundef 15)
  br label %58

58:                                               ; preds = %56, %51, %44
  call void @llvm.lifetime.end.p0(i64 8, ptr %4) #9
  br label %59

59:                                               ; preds = %58
  %60 = getelementptr inbounds nuw %struct.ForEachState, ptr %3, i32 0, i32 1
  %61 = load i32, ptr %60, align 8
  %62 = add i32 %61, 1
  store i32 %62, ptr %60, align 8
  br label %18, !llvm.loop !22

63:                                               ; preds = %43
  %64 = load ptr, ptr @MainLWLockArray, align 8
  %65 = getelementptr inbounds %union.LWLockPadded, ptr %64, i64 43
  call void @LWLockRelease(ptr noundef %65)
  call void @llvm.lifetime.end.p0(i64 8, ptr %2) #9
  call void @llvm.lifetime.end.p0(i64 8, ptr %1) #9
  br label %66

66:                                               ; preds = %63, %0
  %67 = load ptr, ptr @MainLWLockArray, align 8
  %68 = getelementptr inbounds %union.LWLockPadded, ptr %67, i64 43
  %69 = call zeroext i1 @LWLockAcquire(ptr noundef %68, i32 noundef 0)
  %70 = load ptr, ptr @MyLogicalRepWorker, align 8
  call void @logicalrep_worker_cleanup(ptr noundef %70)
  %71 = load ptr, ptr @MainLWLockArray, align 8
  %72 = getelementptr inbounds %union.LWLockPadded, ptr %71, i64 43
  call void @LWLockRelease(ptr noundef %72)
  ret void
}

; Function Attrs: nounwind uwtable
define internal void @logicalrep_worker_onexit(i32 noundef %0, i64 noundef %1) #0 {
  %3 = alloca i32, align 4
  %4 = alloca i64, align 8
  store i32 %0, ptr %3, align 4
  store i64 %1, ptr %4, align 8
  %5 = load ptr, ptr @LogRepWorkerWalRcvConn, align 8
  %6 = icmp ne ptr %5, null
  br i1 %6, label %7, label %12

7:                                                ; preds = %2
  %8 = load ptr, ptr @WalReceiverFunctions, align 8
  %9 = getelementptr inbounds nuw %struct.WalReceiverFunctionsType, ptr %8, i32 0, i32 16
  %10 = load ptr, ptr %9, align 8
  %11 = load ptr, ptr @LogRepWorkerWalRcvConn, align 8
  call void %10(ptr noundef %11)
  br label %12

12:                                               ; preds = %7, %2
  call void @logicalrep_worker_detach()
  %13 = load ptr, ptr @MyLogicalRepWorker, align 8
  %14 = getelementptr inbounds nuw %struct.LogicalRepWorker, ptr %13, i32 0, i32 12
  %15 = load ptr, ptr %14, align 8
  %16 = icmp ne ptr %15, null
  br i1 %16, label %17, label %21

17:                                               ; preds = %12
  %18 = load ptr, ptr @MyLogicalRepWorker, align 8
  %19 = getelementptr inbounds nuw %struct.LogicalRepWorker, ptr %18, i32 0, i32 12
  %20 = load ptr, ptr %19, align 8
  call void @FileSetDeleteAll(ptr noundef %20)
  br label %21

21:                                               ; preds = %17, %12
  %22 = load i8, ptr @InitializingApplyWorker, align 1, !range !4, !noundef !5
  %23 = trunc i8 %22 to i1
  br i1 %23, label %25, label %24

24:                                               ; preds = %21
  call void @LockReleaseAll(i16 noundef zeroext 1, i1 noundef zeroext true)
  br label %25

25:                                               ; preds = %24, %21
  call void @ApplyLauncherWakeup()
  ret void
}