; Function Attrs: nounwind uwtable
define internal void @logicalrep_worker_onexit(i32 %0, i64 %1) #2 {
  %3 = load ptr, ptr @LogRepWorkerWalRcvConn, align 8
  %.not = icmp eq ptr %3, null
  br i1 %.not, label %8, label %4

4:                                                ; preds = %2
  %5 = load ptr, ptr @WalReceiverFunctions, align 8
  %6 = getelementptr inbounds nuw i8, ptr %5, i64 128
  %7 = load ptr, ptr %6, align 8
  tail call void %7(ptr noundef nonnull %3) #13
  br label %8

8:                                                ; preds = %4, %2
  %9 = load ptr, ptr @MyLogicalRepWorker, align 8
  %10 = load i32, ptr %9, align 8
  %11 = icmp eq i32 %10, 2
  br i1 %11, label %12, label %logicalrep_worker_detach.exit

12:                                               ; preds = %8
  tail call void @pa_detach_all_error_mq() #13
  %13 = load ptr, ptr @MainLWLockArray, align 8
  %14 = getelementptr inbounds nuw i8, ptr %13, i64 5504
  %15 = tail call zeroext i1 @LWLockAcquire(ptr noundef nonnull %14, i32 noundef 1) #13
  %16 = load ptr, ptr @MyLogicalRepWorker, align 8
  %17 = getelementptr inbounds nuw i8, ptr %16, i64 40
  %18 = load i32, ptr %17, align 8
  %19 = load i32, ptr @max_logical_replication_workers, align 4
  %20 = icmp sgt i32 %19, 0
  br i1 %20, label %.lr.ph.i.i, label %._crit_edge.i

.lr.ph.i.i:                                       ; preds = %12
  %.pre23.i.i = load ptr, ptr @LogicalRepCtx, align 8
  br label %.lr.ph.split.us.i.i

.lr.ph.split.us.i.i:                              ; preds = %37, %.lr.ph.i.i
  %21 = phi i32 [ %38, %37 ], [ %19, %.lr.ph.i.i ]
  %22 = phi ptr [ %39, %37 ], [ %.pre23.i.i, %.lr.ph.i.i ]
  %indvars.iv17.i.i = phi i64 [ %indvars.iv.next18.i.i, %37 ], [ 0, %.lr.ph.i.i ]
  %.01213.us.i.i = phi ptr [ %.1.us.i.i, %37 ], [ null, %.lr.ph.i.i ]
  %23 = getelementptr inbounds nuw i8, ptr %22, i64 16
  %24 = getelementptr inbounds nuw [0 x %struct.LogicalRepWorker], ptr %23, i64 0, i64 %indvars.iv17.i.i
  %25 = getelementptr inbounds nuw i8, ptr %24, i64 16
  %26 = load i8, ptr %25, align 8, !range !4, !noundef !5
  %27 = trunc nuw i8 %26 to i1
  br i1 %27, label %28, label %37

28:                                               ; preds = %.lr.ph.split.us.i.i
  %29 = getelementptr inbounds nuw i8, ptr %24, i64 40
  %30 = load i32, ptr %29, align 8
  %31 = icmp eq i32 %30, %18
  br i1 %31, label %32, label %37

32:                                               ; preds = %28
  %33 = getelementptr inbounds nuw i8, ptr %24, i64 24
  %34 = load ptr, ptr %33, align 8
  %.not.us.i.i = icmp eq ptr %34, null
  br i1 %.not.us.i.i, label %37, label %35

35:                                               ; preds = %32
  %36 = tail call ptr @lappend(ptr noundef %.01213.us.i.i, ptr noundef nonnull %24) #13
  %.pre22.i.i = load ptr, ptr @LogicalRepCtx, align 8
  %.pre24.i.i = load i32, ptr @max_logical_replication_workers, align 4
  br label %37

37:                                               ; preds = %35, %32, %28, %.lr.ph.split.us.i.i
  %38 = phi i32 [ %.pre24.i.i, %35 ], [ %21, %32 ], [ %21, %28 ], [ %21, %.lr.ph.split.us.i.i ]
  %39 = phi ptr [ %.pre22.i.i, %35 ], [ %22, %32 ], [ %22, %28 ], [ %22, %.lr.ph.split.us.i.i ]
  %.1.us.i.i = phi ptr [ %36, %35 ], [ %.01213.us.i.i, %32 ], [ %.01213.us.i.i, %28 ], [ %.01213.us.i.i, %.lr.ph.split.us.i.i ]
  %indvars.iv.next18.i.i = add nuw nsw i64 %indvars.iv17.i.i, 1
  %40 = sext i32 %38 to i64
  %41 = icmp slt i64 %indvars.iv.next18.i.i, %40
  br i1 %41, label %.lr.ph.split.us.i.i, label %logicalrep_workers_find.exit.i, !llvm.loop !8

logicalrep_workers_find.exit.i:                   ; preds = %37
  %42 = getelementptr inbounds nuw i8, ptr %.1.us.i.i, i64 4
  %.not.i = icmp eq ptr %.1.us.i.i, null
  br i1 %.not.i, label %._crit_edge.i, label %.lr.ph.i

.lr.ph.i:                                         ; preds = %logicalrep_workers_find.exit.i
  %43 = getelementptr inbounds nuw i8, ptr %.1.us.i.i, i64 16
  %44 = load i32, ptr %42, align 4
  %45 = icmp sgt i32 %44, 0
  br i1 %45, label %.lr.ph16.i, label %._crit_edge.i

._crit_edge.i:                                    ; preds = %59, %.lr.ph.i, %logicalrep_workers_find.exit.i, %12
  %46 = load ptr, ptr @MainLWLockArray, align 8
  %47 = getelementptr inbounds nuw i8, ptr %46, i64 5504
  tail call void @LWLockRelease(ptr noundef nonnull %47) #13
  br label %logicalrep_worker_detach.exit

.lr.ph16.i:                                       ; preds = %.lr.ph.i, %59
  %48 = phi i32 [ %60, %59 ], [ %44, %.lr.ph.i ]
  %indvars.iv.i = phi i64 [ %indvars.iv.next.i, %59 ], [ 0, %.lr.ph.i ]
  %49 = load ptr, ptr %43, align 8
  %50 = getelementptr inbounds nuw %union.ListCell, ptr %49, i64 %indvars.iv.i
  %51 = load ptr, ptr %50, align 8
  %52 = getelementptr inbounds nuw i8, ptr %51, i64 16
  %53 = load i8, ptr %52, align 8, !range !4, !noundef !5
  %54 = trunc nuw i8 %53 to i1
  br i1 %54, label %55, label %59

55:                                               ; preds = %.lr.ph16.i
  %56 = load i32, ptr %51, align 8
  %57 = icmp eq i32 %56, 3
  br i1 %57, label %58, label %59

58:                                               ; preds = %55
  tail call fastcc void @logicalrep_worker_stop_internal(ptr noundef nonnull %51, i32 noundef 15)
  %.pre.i = load i32, ptr %42, align 4
  br label %59

59:                                               ; preds = %58, %55, %.lr.ph16.i
  %60 = phi i32 [ %.pre.i, %58 ], [ %48, %55 ], [ %48, %.lr.ph16.i ]
  %indvars.iv.next.i = add nuw nsw i64 %indvars.iv.i, 1
  %61 = sext i32 %60 to i64
  %62 = icmp slt i64 %indvars.iv.next.i, %61
  br i1 %62, label %.lr.ph16.i, label %._crit_edge.i

logicalrep_worker_detach.exit:                    ; preds = %8, %._crit_edge.i
  %63 = load ptr, ptr @MainLWLockArray, align 8
  %64 = getelementptr inbounds nuw i8, ptr %63, i64 5504
  %65 = tail call zeroext i1 @LWLockAcquire(ptr noundef nonnull %64, i32 noundef 0) #13
  %66 = load ptr, ptr @MyLogicalRepWorker, align 8
  store i32 0, ptr %66, align 8
  %67 = getelementptr inbounds nuw i8, ptr %66, i64 16
  store i8 0, ptr %67, align 8
  %68 = getelementptr inbounds nuw i8, ptr %66, i64 24
  %69 = getelementptr inbounds nuw i8, ptr %66, i64 80
  tail call void @llvm.memset.p0.i64(ptr noundef nonnull align 8 dereferenceable(24) %68, i8 0, i64 24, i1 false)
  store i32 -1, ptr %69, align 8
  %70 = getelementptr inbounds nuw i8, ptr %66, i64 84
  store i8 0, ptr %70, align 4
  %71 = load ptr, ptr @MainLWLockArray, align 8
  %72 = getelementptr inbounds nuw i8, ptr %71, i64 5504
  tail call void @LWLockRelease(ptr noundef nonnull %72) #13
  %73 = load ptr, ptr @MyLogicalRepWorker, align 8
  %74 = getelementptr inbounds nuw i8, ptr %73, i64 72
  %75 = load ptr, ptr %74, align 8
  %.not2 = icmp eq ptr %75, null
  br i1 %.not2, label %77, label %76

76:                                               ; preds = %logicalrep_worker_detach.exit
  tail call void @FileSetDeleteAll(ptr noundef nonnull %75) #13
  br label %77

77:                                               ; preds = %76, %logicalrep_worker_detach.exit
  %78 = load i8, ptr @InitializingApplyWorker, align 1, !range !4, !noundef !5
  %79 = trunc nuw i8 %78 to i1
  br i1 %79, label %81, label %80

80:                                               ; preds = %77
  tail call void @LockReleaseAll(i16 noundef zeroext 1, i1 noundef zeroext true) #13
  br label %81

81:                                               ; preds = %80, %77
  %82 = load ptr, ptr @LogicalRepCtx, align 8
  %83 = load i32, ptr %82, align 8
  %.not.i3 = icmp eq i32 %83, 0
  br i1 %.not.i3, label %ApplyLauncherWakeup.exit, label %84

84:                                               ; preds = %81
  %85 = tail call i32 @kill(i32 noundef %83, i32 noundef 10) #13
  br label %ApplyLauncherWakeup.exit

ApplyLauncherWakeup.exit:                         ; preds = %81, %84
  ret void
}